target datalayout = "e-m:e-p270:32:32-p271:32:32-p272:64:64-i64:64-i128:128-f80:128-n8:16:32:64-S128"
target triple = "x86_64-unknown-linux-gnu"

%struct.AudiodevOssPerDirectionOptions = type { i8, i8, i8, i8, i8, i32, i8, i32, i8, i32, i8, i32, i8, i32, ptr, i8, i32, i8, i8 }

@.str.11 = private unnamed_addr constant [4 x i8] c"dev\00", align 1
@.str.13 = private unnamed_addr constant [9 x i8] c"try-poll\00", align 1
@.str.16 = private unnamed_addr constant [13 x i8] c"buffer-count\00", align 1

; Function Attrs: nounwind sspstrong uwtable
define dso_local zeroext i1 @visit_type_AudiodevOssPerDirectionOptions_members(ptr noundef %v, ptr noundef %obj, ptr noundef %errp) #0 {
entry:
  %retval = alloca i1, align 1
  %v.addr = alloca ptr, align 8
  %obj.addr = alloca ptr, align 8
  %errp.addr = alloca ptr, align 8
  %has_dev = alloca i8, align 1
  store ptr %v, ptr %v.addr, align 8
  store ptr %obj, ptr %obj.addr, align 8
  store ptr %errp, ptr %errp.addr, align 8
  %0 = load ptr, ptr %obj.addr, align 8
  %dev = getelementptr inbounds %struct.AudiodevOssPerDirectionOptions, ptr %0, i32 0, i32 14
  %1 = load ptr, ptr %dev, align 8
  %tobool = icmp ne ptr %1, null
  %lnot = xor i1 %tobool, true
  %lnot1 = xor i1 %lnot, true
  %frombool = zext i1 %lnot1 to i8
  store i8 %frombool, ptr %has_dev, align 1
  %2 = load ptr, ptr %v.addr, align 8
  %3 = load ptr, ptr %obj.addr, align 8
  %4 = load ptr, ptr %errp.addr, align 8
  %call = call zeroext i1 @visit_type_AudiodevPerDirectionOptions_members(ptr noundef %2, ptr noundef %3, ptr noundef %4)
  br i1 %call, label %if.end, label %if.then

if.then:                                          ; preds = %entry
  store i1 false, ptr %retval, align 1
  br label %return

if.end:                                           ; preds = %entry
  %5 = load ptr, ptr %v.addr, align 8
  %call2 = call zeroext i1 @visit_optional(ptr noundef %5, ptr noundef @.str.11, ptr noundef %has_dev)
  br i1 %call2, label %if.then3, label %if.end8

if.then3:                                         ; preds = %if.end
  %6 = load ptr, ptr %v.addr, align 8
  %7 = load ptr, ptr %obj.addr, align 8
  %dev4 = getelementptr inbounds %struct.AudiodevOssPerDirectionOptions, ptr %7, i32 0, i32 14
  %8 = load ptr, ptr %errp.addr, align 8
  %call5 = call zeroext i1 @visit_type_str(ptr noundef %6, ptr noundef @.str.11, ptr noundef %dev4, ptr noundef %8)
  br i1 %call5, label %if.end7, label %if.then6

if.then6:                                         ; preds = %if.then3
  store i1 false, ptr %retval, align 1
  br label %return

if.end7:                                          ; preds = %if.then3
  br label %if.end8

if.end8:                                          ; preds = %if.end7, %if.end
  %9 = load ptr, ptr %v.addr, align 8
  %10 = load ptr, ptr %obj.addr, align 8
  %has_buffer_count = getelementptr inbounds %struct.AudiodevOssPerDirectionOptions, ptr %10, i32 0, i32 15
  %call9 = call zeroext i1 @visit_optional(ptr noundef %9, ptr noundef @.str.16, ptr noundef %has_buffer_count)
  br i1 %call9, label %if.then10, label %if.end14

if.then10:                                        ; preds = %if.end8
  %11 = load ptr, ptr %v.addr, align 8
  %12 = load ptr, ptr %obj.addr, align 8
  %buffer_count = getelementptr inbounds %struct.AudiodevOssPerDirectionOptions, ptr %12, i32 0, i32 16
  %13 = load ptr, ptr %errp.addr, align 8
  %call11 = call zeroext i1 @visit_type_uint32(ptr noundef %11, ptr noundef @.str.16, ptr noundef %buffer_count, ptr noundef %13)
  br i1 %call11, label %if.end13, label %if.then12

if.then12:                                        ; preds = %if.then10
  store i1 false, ptr %retval, align 1
  br label %return

if.end13:                                         ; preds = %if.then10
  br label %if.end14

if.end14:                                         ; preds = %if.end13, %if.end8
  %14 = load ptr, ptr %v.addr, align 8
  %15 = load ptr, ptr %obj.addr, align 8
  %has_try_poll = getelementptr inbounds %struct.AudiodevOssPerDirectionOptions, ptr %15, i32 0, i32 17
  %call15 = call zeroext i1 @visit_optional(ptr noundef %14, ptr noundef @.str.13, ptr noundef %has_try_poll)
  br i1 %call15, label %if.then16, label %if.end20

if.then16:                                        ; preds = %if.end14
  %16 = load ptr, ptr %v.addr, align 8
  %17 = load ptr, ptr %obj.addr, align 8
  %try_poll = getelementptr inbounds %struct.AudiodevOssPerDirectionOptions, ptr %17, i32 0, i32 18
  %18 = load ptr, ptr %errp.addr, align 8
  %call17 = call zeroext i1 @visit_type_bool(ptr noundef %16, ptr noundef @.str.13, ptr noundef %try_poll, ptr noundef %18)
  br i1 %call17, label %if.end19, label %if.then18

if.then18:                                        ; preds = %if.then16
  store i1 false, ptr %retval, align 1
  br label %return

if.end19:                                         ; preds = %if.then16
  br label %if.end20

if.end20:                                         ; preds = %if.end19, %if.end14
  store i1 true, ptr %retval, align 1
  br label %return

return:                                           ; preds = %if.end20, %if.then18, %if.then12, %if.then6, %if.then
  %19 = load i1, ptr %retval, align 1
  ret i1 %19
}